; Function Attrs: mustprogress nofree norecurse nosync nounwind memory(readwrite, inaccessiblemem: none) uwtable
define hidden void @_ZN31G1CollectionCandidateRegionList13remove_prefixEPS_(ptr nocapture noundef nonnull align 8 dereferenceable(24) %0, ptr nocapture noundef readonly %1) local_unnamed_addr #8 align 2 {
  %3 = load i32, ptr %1, align 4
  %4 = icmp eq i32 %3, 0
  br i1 %4, label %19, label %5

5:                                                ; preds = %2
  %6 = load i32, ptr %0, align 8
  %7 = icmp sgt i32 %6, %3
  br i1 %7, label %.lr.ph.i.i, label %_ZN17GrowableArrayViewIP12G1HeapRegionE11remove_tillEi.exit

.lr.ph.i.i:                                       ; preds = %5
  %8 = getelementptr inbounds i8, ptr %0, i64 8
  %9 = sext i32 %3 to i64
  br label %10

10:                                               ; preds = %10, %.lr.ph.i.i
  %indvars.iv14.i.i = phi i64 [ 0, %.lr.ph.i.i ], [ %indvars.iv.next15.i.i, %10 ]
  %indvars.iv.i.i = phi i64 [ %9, %.lr.ph.i.i ], [ %indvars.iv.next.i.i, %10 ]
  %11 = load ptr, ptr %8, align 8
  %12 = getelementptr inbounds ptr, ptr %11, i64 %indvars.iv.i.i
  %13 = load ptr, ptr %12, align 8
  %14 = getelementptr inbounds ptr, ptr %11, i64 %indvars.iv14.i.i
  store ptr %13, ptr %14, align 8
  %indvars.iv.next15.i.i = add nuw nsw i64 %indvars.iv14.i.i, 1
  %indvars.iv.next.i.i = add nsw i64 %indvars.iv.i.i, 1
  %15 = load i32, ptr %0, align 8
  %16 = sext i32 %15 to i64
  %17 = icmp slt i64 %indvars.iv.next.i.i, %16
  br i1 %17, label %10, label %_ZN17GrowableArrayViewIP12G1HeapRegionE11remove_tillEi.exit, !llvm.loop !11

_ZN17GrowableArrayViewIP12G1HeapRegionE11remove_tillEi.exit: ; preds = %10, %5
  %.lcssa.i.i = phi i32 [ %6, %5 ], [ %15, %10 ]
  %18 = sub i32 %.lcssa.i.i, %3
  store i32 %18, ptr %0, align 8
  br label %19

19:                                               ; preds = %2, %_ZN17GrowableArrayViewIP12G1HeapRegionE11remove_tillEi.exit
  ret void
}